; Function Attrs: nounwind uwtable
define i32 @gzvprintf(ptr noundef %0, ptr noundef readonly captures(none) %1, ptr noundef %2) local_unnamed_addr #0 {
  %4 = icmp eq ptr %0, null
  br i1 %4, label %102, label %5

5:                                                ; preds = %3
  %6 = getelementptr inbounds nuw i8, ptr %0, i64 128
  %7 = getelementptr inbounds nuw i8, ptr %0, i64 24
  %8 = load i32, ptr %7, align 8, !tbaa !3
  %.not = icmp eq i32 %8, 31153
  br i1 %.not, label %9, label %102

9:                                                ; preds = %5
  %10 = getelementptr inbounds nuw i8, ptr %0, i64 116
  %11 = load i32, ptr %10, align 4, !tbaa !14
  %.not57 = icmp eq i32 %11, 0
  br i1 %.not57, label %12, label %102

12:                                               ; preds = %9
  %13 = getelementptr inbounds nuw i8, ptr %0, i64 40
  %14 = load i32, ptr %13, align 8, !tbaa !15
  %15 = icmp eq i32 %14, 0
  br i1 %15, label %16, label %21

16:                                               ; preds = %12
  %17 = tail call fastcc i32 @gz_init(ptr noundef %0)
  %18 = icmp eq i32 %17, -1
  br i1 %18, label %19, label %21

19:                                               ; preds = %16
  %20 = load i32, ptr %10, align 4, !tbaa !14
  br label %102

21:                                               ; preds = %16, %12
  %22 = getelementptr inbounds nuw i8, ptr %0, i64 112
  %23 = load i32, ptr %22, align 8, !tbaa !16
  %.not58 = icmp eq i32 %23, 0
  br i1 %.not58, label %gz_zero.exit, label %24

24:                                               ; preds = %21
  store i32 0, ptr %22, align 8, !tbaa !16
  %25 = getelementptr inbounds nuw i8, ptr %0, i64 104
  %26 = load i64, ptr %25, align 8, !tbaa !17
  %27 = getelementptr inbounds nuw i8, ptr %0, i64 136
  %28 = load i32, ptr %27, align 8, !tbaa !18
  %.not.i = icmp eq i32 %28, 0
  br i1 %.not.i, label %32, label %29

29:                                               ; preds = %24
  %30 = tail call fastcc i32 @gz_comp(ptr noundef nonnull %0, i32 noundef 0)
  %31 = icmp eq i32 %30, -1
  br i1 %31, label %.loopexit, label %32

32:                                               ; preds = %29, %24
  %.not2224.i = icmp eq i64 %26, 0
  br i1 %.not2224.i, label %gz_zero.exit, label %.lr.ph.i

.lr.ph.i:                                         ; preds = %32
  %33 = getelementptr inbounds nuw i8, ptr %0, i64 48
  %34 = getelementptr inbounds nuw i8, ptr %0, i64 16
  br label %37

35:                                               ; preds = %45
  %36 = sub nsw i64 %.02026.i, %.pre-phi.i
  %.not22.i = icmp eq i64 %36, 0
  br i1 %.not22.i, label %gz_zero.exit, label %37, !llvm.loop !19

37:                                               ; preds = %35, %.lr.ph.i
  %.02026.i = phi i64 [ %26, %.lr.ph.i ], [ %36, %35 ]
  %.not2325.i = phi i1 [ false, %.lr.ph.i ], [ true, %35 ]
  %38 = load i32, ptr %13, align 8, !tbaa !15
  %39 = zext i32 %38 to i64
  %40 = tail call i64 @llvm.smin.i64(i64 %.02026.i, i64 %39)
  %41 = trunc i64 %40 to i32
  br i1 %.not2325.i, label %._crit_edge.i, label %42

._crit_edge.i:                                    ; preds = %37
  %.pre.i = and i64 %40, 4294967295
  br label %45

42:                                               ; preds = %37
  %43 = load ptr, ptr %33, align 8, !tbaa !21
  %44 = and i64 %40, 4294967295
  tail call void @llvm.memset.p0.i64(ptr align 1 %43, i8 0, i64 %44, i1 false)
  br label %45

45:                                               ; preds = %42, %._crit_edge.i
  %.pre-phi.i = phi i64 [ %.pre.i, %._crit_edge.i ], [ %44, %42 ]
  store i32 %41, ptr %27, align 8, !tbaa !18
  %46 = load ptr, ptr %33, align 8, !tbaa !21
  store ptr %46, ptr %6, align 8, !tbaa !22
  %47 = load i64, ptr %34, align 8, !tbaa !23
  %48 = add nsw i64 %47, %.pre-phi.i
  store i64 %48, ptr %34, align 8, !tbaa !23
  %49 = tail call fastcc i32 @gz_comp(ptr noundef nonnull %0, i32 noundef 0)
  %50 = icmp eq i32 %49, -1
  br i1 %50, label %.loopexit, label %35

.loopexit:                                        ; preds = %45, %29
  %51 = load i32, ptr %10, align 4, !tbaa !14
  br label %102

gz_zero.exit:                                     ; preds = %35, %32, %21
  %52 = getelementptr inbounds nuw i8, ptr %0, i64 136
  %53 = load i32, ptr %52, align 8, !tbaa !18
  %54 = icmp eq i32 %53, 0
  %55 = getelementptr inbounds nuw i8, ptr %0, i64 48
  %56 = load ptr, ptr %55, align 8, !tbaa !21
  br i1 %54, label %57, label %gz_zero.exit._crit_edge

gz_zero.exit._crit_edge:                          ; preds = %gz_zero.exit
  %.pre63 = load ptr, ptr %6, align 8, !tbaa !22
  br label %58

57:                                               ; preds = %gz_zero.exit
  store ptr %56, ptr %6, align 8, !tbaa !22
  br label %58

58:                                               ; preds = %gz_zero.exit._crit_edge, %57
  %59 = phi ptr [ %.pre63, %gz_zero.exit._crit_edge ], [ %56, %57 ]
  %60 = getelementptr inbounds nuw i8, ptr %0, i64 48
  %61 = ptrtoint ptr %59 to i64
  %62 = ptrtoint ptr %56 to i64
  %63 = sub i64 %61, %62
  %64 = getelementptr inbounds i8, ptr %56, i64 %63
  %65 = zext i32 %53 to i64
  %66 = getelementptr inbounds nuw i8, ptr %64, i64 %65
  %67 = load i32, ptr %13, align 8, !tbaa !15
  %68 = add i32 %67, -1
  %69 = zext i32 %68 to i64
  %70 = getelementptr inbounds nuw i8, ptr %66, i64 %69
  store i8 0, ptr %70, align 1, !tbaa !27
  %71 = load i32, ptr %13, align 8, !tbaa !15
  %72 = zext i32 %71 to i64
  %73 = tail call i32 @vsnprintf(ptr noundef %66, i64 noundef %72, ptr noundef %1, ptr noundef %2) #14
  %74 = icmp eq i32 %73, 0
  br i1 %74, label %102, label %75

75:                                               ; preds = %58
  %76 = load i32, ptr %13, align 8, !tbaa !15
  %.not59 = icmp ult i32 %73, %76
  br i1 %.not59, label %77, label %102

77:                                               ; preds = %75
  %78 = add i32 %76, -1
  %79 = zext i32 %78 to i64
  %80 = getelementptr inbounds nuw i8, ptr %66, i64 %79
  %81 = load i8, ptr %80, align 1, !tbaa !27
  %.not60 = icmp eq i8 %81, 0
  br i1 %.not60, label %82, label %102

82:                                               ; preds = %77
  %83 = load i32, ptr %52, align 8, !tbaa !18
  %84 = add i32 %83, %73
  store i32 %84, ptr %52, align 8, !tbaa !18
  %85 = sext i32 %73 to i64
  %86 = getelementptr inbounds nuw i8, ptr %0, i64 16
  %87 = load i64, ptr %86, align 8, !tbaa !23
  %88 = add nsw i64 %87, %85
  store i64 %88, ptr %86, align 8, !tbaa !23
  %.not61 = icmp ult i32 %84, %76
  br i1 %.not61, label %102, label %89

89:                                               ; preds = %82
  store i32 %76, ptr %52, align 8, !tbaa !18
  %90 = tail call fastcc i32 @gz_comp(ptr noundef %0, i32 noundef 0)
  %91 = icmp eq i32 %90, -1
  br i1 %91, label %92, label %94

92:                                               ; preds = %89
  %93 = load i32, ptr %10, align 4, !tbaa !14
  br label %102

94:                                               ; preds = %89
  %95 = sub i32 %84, %76
  %96 = load ptr, ptr %60, align 8, !tbaa !21
  %97 = load i32, ptr %13, align 8, !tbaa !15
  %98 = zext i32 %97 to i64
  %99 = getelementptr inbounds nuw i8, ptr %96, i64 %98
  %100 = zext i32 %95 to i64
  tail call void @llvm.memmove.p0.p0.i64(ptr align 1 %96, ptr align 1 %99, i64 %100, i1 false)
  %101 = load ptr, ptr %60, align 8, !tbaa !21
  store ptr %101, ptr %6, align 8, !tbaa !22
  store i32 %95, ptr %52, align 8, !tbaa !18
  br label %102

102:                                              ; preds = %82, %94, %58, %75, %77, %5, %9, %3, %92, %.loopexit, %19
  %.0 = phi i32 [ %20, %19 ], [ %51, %.loopexit ], [ %93, %92 ], [ -2, %3 ], [ -2, %9 ], [ -2, %5 ], [ 0, %77 ], [ 0, %75 ], [ 0, %58 ], [ %73, %94 ], [ %73, %82 ]
  ret i32 %.0
}